; Function Attrs: nounwind sspstrong uwtable
define dso_local void @qdev_propinfo_get_size32(ptr noundef readonly captures(none) %obj, ptr noundef %v, ptr noundef %name, ptr noundef readonly captures(none) %opaque, ptr noundef %errp) #0 {
entry:
  %value = alloca i64, align 8
  %offset.i = getelementptr inbounds nuw i8, ptr %opaque, i64 16
  %0 = load i64, ptr %offset.i, align 8
  %add.ptr.i = getelementptr i8, ptr %obj, i64 %0
  %1 = load i32, ptr %add.ptr.i, align 4
  %conv = zext i32 %1 to i64
  store i64 %conv, ptr %value, align 8
  %call1 = call zeroext i1 @visit_type_size(ptr noundef %v, ptr noundef %name, ptr noundef nonnull %value, ptr noundef %errp) #9
  ret void
}